target datalayout = "e-m:e-p270:32:32-p271:32:32-p272:64:64-i64:64-i128:128-f80:128-n8:16:32:64-S128"
target triple = "x86_64-pc-linux-gnu"

%struct.fstETab = type { ptr, i32, ptr, ptr }

; Function Attrs: mustprogress nounwind uwtable
define void @fstUtilityFreeEnumTable(ptr noundef %0) #8 {
  %2 = alloca ptr, align 8
  store ptr %0, ptr %2, align 8, !tbaa !279
  %3 = load ptr, ptr %2, align 8, !tbaa !279
  %4 = icmp ne ptr %3, null
  br i1 %4, label %5, label %16

5:                                                ; preds = %1
  %6 = load ptr, ptr %2, align 8, !tbaa !279
  %7 = getelementptr inbounds nuw %struct.fstETab, ptr %6, i32 0, i32 2
  %8 = load ptr, ptr %7, align 8, !tbaa !285
  call void @free(ptr noundef %8) #15
  %9 = load ptr, ptr %2, align 8, !tbaa !279
  %10 = getelementptr inbounds nuw %struct.fstETab, ptr %9, i32 0, i32 3
  %11 = load ptr, ptr %10, align 8, !tbaa !286
  call void @free(ptr noundef %11) #15
  %12 = load ptr, ptr %2, align 8, !tbaa !279
  %13 = getelementptr inbounds nuw %struct.fstETab, ptr %12, i32 0, i32 0
  %14 = load ptr, ptr %13, align 8, !tbaa !284
  call void @free(ptr noundef %14) #15
  %15 = load ptr, ptr %2, align 8, !tbaa !279
  call void @free(ptr noundef %15) #15
  br label %16

16:                                               ; preds = %5, %1
  ret void
}