; Function Attrs: mustprogress nounwind willreturn uwtable
define void @fstUtilityFreeEnumTable(ptr noundef captures(address_is_null) %0) local_unnamed_addr #25 {
  %.not = icmp eq ptr %0, null
  br i1 %.not, label %8, label %2

2:                                                ; preds = %1
  %3 = getelementptr inbounds nuw i8, ptr %0, i64 16
  %4 = load ptr, ptr %3, align 8, !tbaa !253
  tail call void @free(ptr noundef %4) #39
  %5 = getelementptr inbounds nuw i8, ptr %0, i64 24
  %6 = load ptr, ptr %5, align 8, !tbaa !254
  tail call void @free(ptr noundef %6) #39
  %7 = load ptr, ptr %0, align 8, !tbaa !252
  tail call void @free(ptr noundef %7) #39
  tail call void @free(ptr noundef nonnull %0) #39
  br label %8

8:                                                ; preds = %2, %1
  ret void
}